target datalayout = "e-m:e-p270:32:32-p271:32:32-p272:64:64-i64:64-i128:128-f80:128-n8:16:32:64-S128"
target triple = "x86_64-pc-linux-gnu"

@TypeProfileArgsLimit = external global i32, align 4
@TypeProfileLevel = external global i32, align 4
@TypeProfileWidth = external global i64, align 8

; Function Attrs: mustprogress nounwind uwtable
define hidden noundef i32 @_ZN10MethodData19profile_return_flagEv() #1 align 2 {
  %1 = load i32, ptr @TypeProfileLevel, align 4
  %2 = urem i32 %1, 100
  %3 = udiv i32 %2, 10
  ret i32 %3
}

; Function Attrs: mustprogress nounwind uwtable
define hidden noundef i32 @_ZN10MethodData22profile_arguments_flagEv() #1 align 2 {
  %1 = load i32, ptr @TypeProfileLevel, align 4
  %2 = urem i32 %1, 10
  ret i32 %2
}

; Function Attrs: mustprogress nounwind uwtable
define linkonce_odr hidden noundef i32 @_ZN10BranchData17static_cell_countEv() #1 comdat align 2 {
  ret i32 3
}

; Function Attrs: mustprogress nounwind uwtable
define linkonce_odr hidden noundef i32 @_ZN7RetData17static_cell_countEv() #1 comdat align 2 {
  ret i32 7
}

; Function Attrs: mustprogress nounwind uwtable
define linkonce_odr hidden noundef i32 @_ZN15VirtualCallData17static_cell_countEv() #1 comdat align 2 {
  %1 = call noundef i32 @_ZN16ReceiverTypeData17static_cell_countEv()
  ret i32 %1
}

; Function Attrs: mustprogress nounwind uwtable
define linkonce_odr hidden noundef i32 @_ZN8JumpData17static_cell_countEv() #1 comdat align 2 {
  ret i32 2
}

; Function Attrs: mustprogress nounwind uwtable
define linkonce_odr hidden noundef i32 @_ZN11CounterData17static_cell_countEv() #1 comdat align 2 {
  ret i32 1
}

; Function Attrs: mustprogress nounwind uwtable
define hidden noundef zeroext i1 @_ZN10MethodData14profile_returnEv() #1 align 2 {
  %1 = call noundef i32 @_ZN10MethodData19profile_return_flagEv()
  %2 = icmp sgt i32 %1, 0
  br i1 %2, label %3, label %6

3:                                                ; preds = %0
  %4 = call noundef i32 @_ZN10MethodData19profile_return_flagEv()
  %5 = icmp sle i32 %4, 2
  br label %6

6:                                                ; preds = %3, %0
  %7 = phi i1 [ false, %0 ], [ %5, %3 ]
  ret i1 %7
}

; Function Attrs: mustprogress nounwind uwtable
define hidden noundef zeroext i1 @_ZN10MethodData17profile_argumentsEv() #1 align 2 {
  %1 = call noundef i32 @_ZN10MethodData22profile_arguments_flagEv()
  %2 = icmp sgt i32 %1, 0
  br i1 %2, label %3, label %9

3:                                                ; preds = %0
  %4 = call noundef i32 @_ZN10MethodData22profile_arguments_flagEv()
  %5 = icmp sle i32 %4, 2
  br i1 %5, label %6, label %9

6:                                                ; preds = %3
  %7 = load i32, ptr @TypeProfileArgsLimit, align 4
  %8 = icmp sgt i32 %7, 0
  br label %9

9:                                                ; preds = %6, %3, %0
  %10 = phi i1 [ false, %3 ], [ false, %0 ], [ %8, %6 ]
  ret i1 %10
}

; Function Attrs: mustprogress nounwind uwtable
define linkonce_odr hidden noundef i32 @_ZN16ReceiverTypeData17static_cell_countEv() #1 comdat align 2 {
  %1 = load i64, ptr @TypeProfileWidth, align 8
  %2 = trunc i64 %1 to i32
  %3 = mul i32 %2, 2
  %4 = add i32 1, %3
  ret i32 %4
}

; Function Attrs: mustprogress nounwind uwtable
define hidden noundef i32 @_ZN10MethodData19bytecode_cell_countEN9Bytecodes4CodeE(i32 noundef %0) #1 align 2 {
  %2 = alloca i32, align 4
  %3 = alloca i32, align 4
  store i32 %0, ptr %3, align 4
  %4 = load i32, ptr %3, align 4
  switch i32 %4, label %35 [
    i32 192, label %5
    i32 193, label %5
    i32 83, label %5
    i32 183, label %7
    i32 184, label %7
    i32 167, label %14
    i32 200, label %14
    i32 168, label %14
    i32 201, label %14
    i32 182, label %16
    i32 185, label %16
    i32 186, label %23
    i32 169, label %30
    i32 153, label %32
    i32 154, label %32
    i32 155, label %32
    i32 156, label %32
    i32 157, label %32
    i32 158, label %32
    i32 159, label %32
    i32 160, label %32
    i32 161, label %32
    i32 162, label %32
    i32 163, label %32
    i32 164, label %32
    i32 165, label %32
    i32 166, label %32
    i32 198, label %32
    i32 199, label %32
    i32 171, label %34
    i32 170, label %34
  ]

5:                                                ; preds = %1, %1, %1
  %6 = call noundef i32 @_ZN16ReceiverTypeData17static_cell_countEv()
  store i32 %6, ptr %2, align 4
  br label %36

7:                                                ; preds = %1, %1
  %8 = call noundef zeroext i1 @_ZN10MethodData17profile_argumentsEv()
  br i1 %8, label %11, label %9

9:                                                ; preds = %7
  %10 = call noundef zeroext i1 @_ZN10MethodData14profile_returnEv()
  br i1 %10, label %11, label %12

11:                                               ; preds = %9, %7
  store i32 -2, ptr %2, align 4
  br label %36

12:                                               ; preds = %9
  %13 = call noundef i32 @_ZN11CounterData17static_cell_countEv()
  store i32 %13, ptr %2, align 4
  br label %36

14:                                               ; preds = %1, %1, %1, %1
  %15 = call noundef i32 @_ZN8JumpData17static_cell_countEv()
  store i32 %15, ptr %2, align 4
  br label %36

16:                                               ; preds = %1, %1
  %17 = call noundef zeroext i1 @_ZN10MethodData17profile_argumentsEv()
  br i1 %17, label %20, label %18

18:                                               ; preds = %16
  %19 = call noundef zeroext i1 @_ZN10MethodData14profile_returnEv()
  br i1 %19, label %20, label %21

20:                                               ; preds = %18, %16
  store i32 -2, ptr %2, align 4
  br label %36

21:                                               ; preds = %18
  %22 = call noundef i32 @_ZN15VirtualCallData17static_cell_countEv()
  store i32 %22, ptr %2, align 4
  br label %36

23:                                               ; preds = %1
  %24 = call noundef zeroext i1 @_ZN10MethodData17profile_argumentsEv()
  br i1 %24, label %27, label %25

25:                                               ; preds = %23
  %26 = call noundef zeroext i1 @_ZN10MethodData14profile_returnEv()
  br i1 %26, label %27, label %28

27:                                               ; preds = %25, %23
  store i32 -2, ptr %2, align 4
  br label %36

28:                                               ; preds = %25
  %29 = call noundef i32 @_ZN11CounterData17static_cell_countEv()
  store i32 %29, ptr %2, align 4
  br label %36

30:                                               ; preds = %1
  %31 = call noundef i32 @_ZN7RetData17static_cell_countEv()
  store i32 %31, ptr %2, align 4
  br label %36

32:                                               ; preds = %1, %1, %1, %1, %1, %1, %1, %1, %1, %1, %1, %1, %1, %1, %1, %1
  %33 = call noundef i32 @_ZN10BranchData17static_cell_countEv()
  store i32 %33, ptr %2, align 4
  br label %36

34:                                               ; preds = %1, %1
  store i32 -2, ptr %2, align 4
  br label %36

35:                                               ; preds = %1
  store i32 -1, ptr %2, align 4
  br label %36

36:                                               ; preds = %35, %34, %32, %30, %28, %27, %21, %20, %14, %12, %11, %5
  %37 = load i32, ptr %2, align 4
  ret i32 %37
}