; Function Attrs: mustprogress nofree norecurse nosync nounwind willreturn memory(read, argmem: none, inaccessiblemem: none) uwtable
define hidden noundef i32 @_ZN10MethodData19bytecode_cell_countEN9Bytecodes4CodeE(i32 noundef %0) local_unnamed_addr #7 align 2 {
  switch i32 %0, label %45 [
    i32 192, label %2
    i32 193, label %2
    i32 83, label %2
    i32 183, label %7
    i32 184, label %7
    i32 167, label %17
    i32 200, label %17
    i32 168, label %17
    i32 201, label %17
    i32 182, label %18
    i32 185, label %18
    i32 186, label %33
    i32 169, label %43
    i32 153, label %44
    i32 154, label %44
    i32 155, label %44
    i32 156, label %44
    i32 157, label %44
    i32 158, label %44
    i32 159, label %44
    i32 160, label %44
    i32 161, label %44
    i32 162, label %44
    i32 163, label %44
    i32 164, label %44
    i32 165, label %44
    i32 166, label %44
    i32 198, label %44
    i32 199, label %44
    i32 171, label %46
    i32 170, label %46
  ]

2:                                                ; preds = %1, %1, %1
  %3 = load i64, ptr @TypeProfileWidth, align 8
  %4 = trunc i64 %3 to i32
  %5 = shl i32 %4, 1
  %6 = or disjoint i32 %5, 1
  br label %46

7:                                                ; preds = %1, %1
  %8 = load i32, ptr @TypeProfileLevel, align 4
  %9 = urem i32 %8, 10
  %10 = add nsw i32 %9, -1
  %or.cond.i = icmp ult i32 %10, 2
  %11 = load i32, ptr @TypeProfileArgsLimit, align 4
  %12 = icmp sgt i32 %11, 0
  %13 = select i1 %or.cond.i, i1 %12, i1 false
  br i1 %13, label %46, label %14

14:                                               ; preds = %7
  %15 = urem i32 %8, 100
  %16 = add nsw i32 %15, -10
  %spec.select.i = icmp ult i32 %16, 20
  %spec.select = select i1 %spec.select.i, i32 -2, i32 1
  br label %46

17:                                               ; preds = %1, %1, %1, %1
  br label %46

18:                                               ; preds = %1, %1
  %19 = load i32, ptr @TypeProfileLevel, align 4
  %20 = urem i32 %19, 10
  %21 = add nsw i32 %20, -1
  %or.cond.i2 = icmp ult i32 %21, 2
  %22 = load i32, ptr @TypeProfileArgsLimit, align 4
  %23 = icmp sgt i32 %22, 0
  %24 = select i1 %or.cond.i2, i1 %23, i1 false
  br i1 %24, label %46, label %25

25:                                               ; preds = %18
  %26 = urem i32 %19, 100
  %27 = add nsw i32 %26, -10
  %spec.select.i3 = icmp ult i32 %27, 20
  br i1 %spec.select.i3, label %46, label %28

28:                                               ; preds = %25
  %29 = load i64, ptr @TypeProfileWidth, align 8
  %30 = trunc i64 %29 to i32
  %31 = shl i32 %30, 1
  %32 = or disjoint i32 %31, 1
  br label %46

33:                                               ; preds = %1
  %34 = load i32, ptr @TypeProfileLevel, align 4
  %35 = urem i32 %34, 10
  %36 = add nsw i32 %35, -1
  %or.cond.i4 = icmp ult i32 %36, 2
  %37 = load i32, ptr @TypeProfileArgsLimit, align 4
  %38 = icmp sgt i32 %37, 0
  %39 = select i1 %or.cond.i4, i1 %38, i1 false
  br i1 %39, label %46, label %40

40:                                               ; preds = %33
  %41 = urem i32 %34, 100
  %42 = add nsw i32 %41, -10
  %spec.select.i5 = icmp ult i32 %42, 20
  %spec.select6 = select i1 %spec.select.i5, i32 -2, i32 1
  br label %46

43:                                               ; preds = %1
  br label %46

44:                                               ; preds = %1, %1, %1, %1, %1, %1, %1, %1, %1, %1, %1, %1, %1, %1, %1, %1
  br label %46

45:                                               ; preds = %1
  br label %46

46:                                               ; preds = %40, %14, %1, %1, %33, %18, %25, %7, %45, %44, %43, %28, %17, %2
  %.0 = phi i32 [ -1, %45 ], [ 3, %44 ], [ 7, %43 ], [ %32, %28 ], [ 2, %17 ], [ %6, %2 ], [ -2, %7 ], [ -2, %25 ], [ -2, %18 ], [ -2, %33 ], [ -2, %1 ], [ -2, %1 ], [ %spec.select, %14 ], [ %spec.select6, %40 ]
  ret i32 %.0
}